target datalayout = "e-m:e-p270:32:32-p271:32:32-p272:64:64-i64:64-i128:128-f80:128-n8:16:32:64-S128"
target triple = "x86_64-pc-linux-gnu"

%struct.AVFormatContext = type { ptr, ptr, ptr, ptr, ptr, i32, i32, ptr, i32, ptr, i32, ptr, ptr, i64, i64, i64, i32, i32, i32, i64, i64, ptr, i32, i32, ptr, i32, i32, i32, i32, ptr, i64, i32, i32, %struct.AVIOInterruptCB, i32, i32, i32, i32, i64, i32, i32, i32, i32, i32, i32, i32, i32, i32, i32, i32, i32, i64, i32, i32, i32, i32, i32, ptr, ptr, ptr, ptr, i32, ptr, ptr, ptr, ptr, i32, ptr, ptr, i64, ptr, ptr, ptr, i64 }
%struct.AVIOInterruptCB = type { ptr, ptr }
%struct.AVStream = type { ptr, i32, i32, ptr, ptr, %struct.AVRational, i64, i64, i64, i32, i32, %struct.AVRational, ptr, %struct.AVRational, %struct.AVPacket, i32, %struct.AVRational, i32 }
%struct.AVPacket = type { ptr, i64, i64, ptr, i32, i32, i32, ptr, i32, i64, i64, ptr, ptr, %struct.AVRational }
%struct.AVRational = type { i32, i32 }
%struct.AVCodecParameters = type { i32, i32, i32, ptr, i32, ptr, i32, i32, i64, i32, i32, i32, i32, i32, i32, %struct.AVRational, %struct.AVRational, i32, i32, i32, i32, i32, i32, i32, %struct.AVChannelLayout, i32, i32, i32, i32, i32, i32 }
%struct.AVChannelLayout = type { i32, i32, %union.anon.0, ptr }
%union.anon.0 = type { i64 }
%struct.Codec2Context = type { ptr, i32, i32 }

@.str.31 = private unnamed_addr constant [62 x i8] c"-mode must be set in order to make sense of raw codec2 files\0A\00", align 1

; Function Attrs: inlinehint nounwind uwtable
define internal void @codec2_make_extradata(ptr noundef %0, i32 noundef %1) #5 {
  %3 = alloca ptr, align 8
  %4 = alloca i32, align 4
  store ptr %0, ptr %3, align 8, !tbaa !71
  store i32 %1, ptr %4, align 4, !tbaa !40
  %5 = load ptr, ptr %3, align 8, !tbaa !71
  %6 = getelementptr inbounds i8, ptr %5, i64 0
  store i8 0, ptr %6, align 1, !tbaa !13
  %7 = load ptr, ptr %3, align 8, !tbaa !71
  %8 = getelementptr inbounds i8, ptr %7, i64 1
  store i8 8, ptr %8, align 1, !tbaa !13
  %9 = load i32, ptr %4, align 4, !tbaa !40
  %10 = trunc i32 %9 to i8
  %11 = load ptr, ptr %3, align 8, !tbaa !71
  %12 = getelementptr inbounds i8, ptr %11, i64 2
  store i8 %10, ptr %12, align 1, !tbaa !13
  %13 = load ptr, ptr %3, align 8, !tbaa !71
  %14 = getelementptr inbounds i8, ptr %13, i64 3
  store i8 0, ptr %14, align 1, !tbaa !13
  ret void
}

; Function Attrs: nounwind uwtable
define internal i32 @codec2raw_read_header(ptr noundef %0) #0 {
  %2 = alloca i32, align 4
  %3 = alloca ptr, align 8
  %4 = alloca ptr, align 8
  %5 = alloca ptr, align 8
  %6 = alloca i32, align 4
  %7 = alloca i32, align 4
  store ptr %0, ptr %3, align 8, !tbaa !14
  call void @llvm.lifetime.start.p0(i64 8, ptr %4) #7
  %8 = load ptr, ptr %3, align 8, !tbaa !14
  %9 = getelementptr inbounds nuw %struct.AVFormatContext, ptr %8, i32 0, i32 3
  %10 = load ptr, ptr %9, align 8, !tbaa !50
  store ptr %10, ptr %4, align 8, !tbaa !51
  call void @llvm.lifetime.start.p0(i64 8, ptr %5) #7
  call void @llvm.lifetime.start.p0(i64 4, ptr %6) #7
  %11 = load ptr, ptr %4, align 8, !tbaa !51
  %12 = getelementptr inbounds nuw %struct.Codec2Context, ptr %11, i32 0, i32 1
  %13 = load i32, ptr %12, align 8, !tbaa !59
  %14 = icmp slt i32 %13, 0
  br i1 %14, label %15, label %17

15:                                               ; preds = %1
  %16 = load ptr, ptr %3, align 8, !tbaa !14
  call void (ptr, i32, ptr, ...) @av_log(ptr noundef %16, i32 noundef 16, ptr noundef @.str.31)
  store i32 -22, ptr %2, align 4
  store i32 1, ptr %7, align 4
  br label %44

17:                                               ; preds = %1
  %18 = load ptr, ptr %3, align 8, !tbaa !14
  %19 = call ptr @avformat_new_stream(ptr noundef %18, ptr noundef null)
  store ptr %19, ptr %5, align 8, !tbaa !16
  %20 = load ptr, ptr %5, align 8, !tbaa !16
  %21 = icmp ne ptr %20, null
  br i1 %21, label %23, label %22

22:                                               ; preds = %17
  store i32 -12, ptr %2, align 4
  store i32 1, ptr %7, align 4
  br label %44

23:                                               ; preds = %17
  %24 = load ptr, ptr %5, align 8, !tbaa !16
  %25 = getelementptr inbounds nuw %struct.AVStream, ptr %24, i32 0, i32 3
  %26 = load ptr, ptr %25, align 8, !tbaa !33
  %27 = call i32 @ff_alloc_extradata(ptr noundef %26, i32 noundef 4)
  store i32 %27, ptr %6, align 4, !tbaa !40
  %28 = load i32, ptr %6, align 4, !tbaa !40
  %29 = icmp ne i32 %28, 0
  br i1 %29, label %30, label %32

30:                                               ; preds = %23
  %31 = load i32, ptr %6, align 4, !tbaa !40
  store i32 %31, ptr %2, align 4
  store i32 1, ptr %7, align 4
  br label %44

32:                                               ; preds = %23
  %33 = load ptr, ptr %5, align 8, !tbaa !16
  %34 = getelementptr inbounds nuw %struct.AVStream, ptr %33, i32 0, i32 3
  %35 = load ptr, ptr %34, align 8, !tbaa !33
  %36 = getelementptr inbounds nuw %struct.AVCodecParameters, ptr %35, i32 0, i32 3
  %37 = load ptr, ptr %36, align 8, !tbaa !41
  %38 = load ptr, ptr %4, align 8, !tbaa !51
  %39 = getelementptr inbounds nuw %struct.Codec2Context, ptr %38, i32 0, i32 1
  %40 = load i32, ptr %39, align 8, !tbaa !59
  call void @codec2_make_extradata(ptr noundef %37, i32 noundef %40)
  %41 = load ptr, ptr %3, align 8, !tbaa !14
  %42 = load ptr, ptr %5, align 8, !tbaa !16
  %43 = call i32 @codec2_read_header_common(ptr noundef %41, ptr noundef %42)
  store i32 %43, ptr %2, align 4
  store i32 1, ptr %7, align 4
  br label %44

44:                                               ; preds = %32, %30, %22, %15
  call void @llvm.lifetime.end.p0(i64 4, ptr %6) #7
  call void @llvm.lifetime.end.p0(i64 8, ptr %5) #7
  call void @llvm.lifetime.end.p0(i64 8, ptr %4) #7
  %45 = load i32, ptr %2, align 4
  ret i32 %45
}