; Function Attrs: nounwind uwtable
define internal i32 @codec2raw_read_header(ptr noundef %0) #1 {
  %2 = getelementptr inbounds nuw i8, ptr %0, i64 24
  %3 = load ptr, ptr %2, align 8, !tbaa !47
  %4 = getelementptr inbounds nuw i8, ptr %3, i64 8
  %5 = load i32, ptr %4, align 8, !tbaa !52
  %6 = icmp slt i32 %5, 0
  br i1 %6, label %7, label %8

7:                                                ; preds = %1
  tail call void (ptr, i32, ptr, ...) @av_log(ptr noundef nonnull %0, i32 noundef 16, ptr noundef nonnull @.str.31) #4
  br label %24

8:                                                ; preds = %1
  %9 = tail call ptr @avformat_new_stream(ptr noundef nonnull %0, ptr noundef null) #4
  %.not = icmp eq ptr %9, null
  br i1 %.not, label %24, label %10

10:                                               ; preds = %8
  %11 = getelementptr inbounds nuw i8, ptr %9, i64 16
  %12 = load ptr, ptr %11, align 8, !tbaa !27
  %13 = tail call i32 @ff_alloc_extradata(ptr noundef %12, i32 noundef 4) #4
  %.not14 = icmp eq i32 %13, 0
  br i1 %.not14, label %14, label %24

14:                                               ; preds = %10
  %15 = load ptr, ptr %11, align 8, !tbaa !27
  %16 = getelementptr inbounds nuw i8, ptr %15, i64 16
  %17 = load ptr, ptr %16, align 8, !tbaa !34
  %18 = load i32, ptr %4, align 8, !tbaa !52
  store i8 0, ptr %17, align 1, !tbaa !11
  %19 = getelementptr inbounds nuw i8, ptr %17, i64 1
  store i8 8, ptr %19, align 1, !tbaa !11
  %20 = trunc i32 %18 to i8
  %21 = getelementptr inbounds nuw i8, ptr %17, i64 2
  store i8 %20, ptr %21, align 1, !tbaa !11
  %22 = getelementptr inbounds nuw i8, ptr %17, i64 3
  store i8 0, ptr %22, align 1, !tbaa !11
  %23 = tail call fastcc i32 @codec2_read_header_common(ptr noundef nonnull %0, ptr noundef %9)
  br label %24

24:                                               ; preds = %10, %8, %14, %7
  %.0 = phi i32 [ -22, %7 ], [ %23, %14 ], [ -12, %8 ], [ %13, %10 ]
  ret i32 %.0
}